target datalayout = "e-m:e-p270:32:32-p271:32:32-p272:64:64-i64:64-i128:128-f80:128-n8:16:32:64-S128"
target triple = "x86_64-pc-linux-gnu"

%"class.std::__cxx11::basic_string" = type { %"struct.std::__cxx11::basic_string<char>::_Alloc_hider", i64, %union.anon }
%"struct.std::__cxx11::basic_string<char>::_Alloc_hider" = type { ptr }
%union.anon = type { i64, [8 x i8] }
%"class.std::set" = type { %"class.std::_Rb_tree.10" }
%"class.std::_Rb_tree.10" = type { %"struct.std::_Rb_tree<std::__cxx11::basic_string<char>, std::__cxx11::basic_string<char>, std::_Identity<std::__cxx11::basic_string<char>>, std::less<std::__cxx11::basic_string<char>>>::_Rb_tree_impl" }
%"struct.std::_Rb_tree<std::__cxx11::basic_string<char>, std::__cxx11::basic_string<char>, std::_Identity<std::__cxx11::basic_string<char>>, std::less<std::__cxx11::basic_string<char>>>::_Rb_tree_impl" = type { %"struct.std::_Rb_tree_key_compare", %"struct.std::_Rb_tree_header" }
%"struct.std::_Rb_tree_key_compare" = type { %"struct.std::less" }
%"struct.std::less" = type { i8 }
%"struct.std::_Rb_tree_header" = type { %"struct.std::_Rb_tree_node_base", i64 }
%"struct.std::_Rb_tree_node_base" = type { i32, ptr, ptr, ptr }
%"class.nix::StorePath" = type { %"class.std::__cxx11::basic_string" }
%"struct.nix::ValidPathInfo" = type { %"struct.nix::UnkeyedValidPathInfo", %"class.nix::StorePath" }
%"struct.nix::UnkeyedValidPathInfo" = type { ptr, %"class.std::optional.100", %"struct.nix::Hash", %"class.std::set.110", i64, i64, i64, i8, %"class.std::set", %"class.std::optional.118" }
%"class.std::optional.100" = type { %"struct.std::_Optional_base.101" }
%"struct.std::_Optional_base.101" = type { %"struct.std::_Optional_payload.103" }
%"struct.std::_Optional_payload.103" = type { %"struct.std::_Optional_payload.base.107", [7 x i8] }
%"struct.std::_Optional_payload.base.107" = type { %"struct.std::_Optional_payload_base.base.106" }
%"struct.std::_Optional_payload_base.base.106" = type <{ %"union.std::_Optional_payload_base<nix::StorePath>::_Storage", i8 }>
%"union.std::_Optional_payload_base<nix::StorePath>::_Storage" = type { %"class.nix::StorePath" }
%"struct.nix::Hash" = type <{ i64, [64 x i8], i8, [7 x i8] }>
%"class.std::set.110" = type { %"class.std::_Rb_tree.111" }
%"class.std::_Rb_tree.111" = type { %"struct.std::_Rb_tree<nix::StorePath, nix::StorePath, std::_Identity<nix::StorePath>, std::less<nix::StorePath>>::_Rb_tree_impl" }
%"struct.std::_Rb_tree<nix::StorePath, nix::StorePath, std::_Identity<nix::StorePath>, std::less<nix::StorePath>>::_Rb_tree_impl" = type { %"struct.std::_Rb_tree_key_compare.115", %"struct.std::_Rb_tree_header" }
%"struct.std::_Rb_tree_key_compare.115" = type { %"struct.std::less.116" }
%"struct.std::less.116" = type { i8 }
%"class.std::optional.118" = type { %"struct.std::_Optional_base.119" }
%"struct.std::_Optional_base.119" = type { %"struct.std::_Optional_payload.121" }
%"struct.std::_Optional_payload.121" = type { %"struct.std::_Optional_payload_base.base.127", [7 x i8] }
%"struct.std::_Optional_payload_base.base.127" = type { %"union.std::_Optional_payload_base<nix::ContentAddress>::_Storage", i8 }
%"union.std::_Optional_payload_base<nix::ContentAddress>::_Storage" = type { %"struct.nix::ContentAddress" }
%"struct.nix::ContentAddress" = type { %"struct.nix::ContentAddressMethod", [6 x i8], %"struct.nix::Hash" }
%"struct.nix::ContentAddressMethod" = type { %"class.std::variant" }
%"class.std::variant" = type { %"struct.std::__detail::__variant::_Variant_base" }
%"struct.std::__detail::__variant::_Variant_base" = type { %"struct.std::__detail::__variant::_Move_assign_base" }
%"struct.std::__detail::__variant::_Move_assign_base" = type { %"struct.std::__detail::__variant::_Copy_assign_base" }
%"struct.std::__detail::__variant::_Copy_assign_base" = type { %"struct.std::__detail::__variant::_Move_ctor_base" }
%"struct.std::__detail::__variant::_Move_ctor_base" = type { %"struct.std::__detail::__variant::_Copy_ctor_base" }
%"struct.std::__detail::__variant::_Copy_ctor_base" = type { %"struct.std::__detail::__variant::_Variant_storage" }
%"struct.std::__detail::__variant::_Variant_storage" = type { %"union.std::__detail::__variant::_Variadic_union", i8 }
%"union.std::__detail::__variant::_Variadic_union" = type { %"struct.std::__detail::__variant::_Uninitialized" }
%"struct.std::__detail::__variant::_Uninitialized" = type { %"struct.nix::TextIngestionMethod" }
%"struct.nix::TextIngestionMethod" = type { i8 }
%"struct.std::pair.161" = type { %"struct.nix::Hash", i64 }
%class.anon.222 = type { ptr }

@_ZTVN3nix13ValidPathInfoE = linkonce_odr unnamed_addr constant { [5 x ptr] } { [5 x ptr] [ptr null, ptr @_ZTIN3nix13ValidPathInfoE, ptr @_ZN3nix13ValidPathInfoD2Ev, ptr @_ZN3nix13ValidPathInfoD0Ev, ptr @_ZNK3nix20UnkeyedValidPathInfo6toJSONB5cxx11ERKNS_5StoreEbNS_10HashFormatE] }, comdat, align 8

; Function Attrs: mustprogress uwtable
define linkonce_odr void @_ZN3nix9StorePathC2ERKS0_(ptr noundef nonnull align 8 dereferenceable(32) %0, ptr noundef nonnull align 8 dereferenceable(32) %1) unnamed_addr #5 comdat align 2 {
  %3 = alloca ptr, align 8
  %4 = alloca ptr, align 8
  store ptr %0, ptr %3, align 8
  store ptr %1, ptr %4, align 8
  %5 = load ptr, ptr %3, align 8
  %6 = getelementptr inbounds %"class.nix::StorePath", ptr %5, i32 0, i32 0
  %7 = load ptr, ptr %4, align 8
  %8 = getelementptr inbounds %"class.nix::StorePath", ptr %7, i32 0, i32 0
  call void @_ZNSt7__cxx1112basic_stringIcSt11char_traitsIcESaIcEEC2ERKS4_(ptr noundef nonnull align 8 dereferenceable(32) %6, ptr noundef nonnull align 8 dereferenceable(32) %8)
  ret void
}

; Function Attrs: mustprogress uwtable
define linkonce_odr void @_ZN3nix13ValidPathInfoC2ERKS0_(ptr noundef nonnull align 8 dereferenceable(384) %0, ptr noundef nonnull align 8 dereferenceable(384) %1) unnamed_addr #5 comdat align 2 personality ptr @__gxx_personality_v0 {
  %3 = alloca ptr, align 8
  %4 = alloca ptr, align 8
  %5 = alloca ptr, align 8
  %6 = alloca i32, align 4
  store ptr %0, ptr %3, align 8
  store ptr %1, ptr %4, align 8
  %7 = load ptr, ptr %3, align 8
  %8 = load ptr, ptr %4, align 8
  call void @_ZN3nix20UnkeyedValidPathInfoC2ERKS0_(ptr noundef nonnull align 8 dereferenceable(352) %7, ptr noundef nonnull align 8 dereferenceable(352) %8)
  store ptr getelementptr inbounds ({ [5 x ptr] }, ptr @_ZTVN3nix13ValidPathInfoE, i32 0, i32 0, i32 2), ptr %7, align 8
  %9 = getelementptr inbounds %"struct.nix::ValidPathInfo", ptr %7, i32 0, i32 1
  %10 = load ptr, ptr %4, align 8
  %11 = getelementptr inbounds %"struct.nix::ValidPathInfo", ptr %10, i32 0, i32 1
  invoke void @_ZN3nix9StorePathC2ERKS0_(ptr noundef nonnull align 8 dereferenceable(32) %9, ptr noundef nonnull align 8 dereferenceable(32) %11)
          to label %12 unwind label %13

12:                                               ; preds = %2
  ret void

13:                                               ; preds = %2
  %14 = landingpad { ptr, i32 }
          cleanup
  %15 = extractvalue { ptr, i32 } %14, 0
  store ptr %15, ptr %5, align 8
  %16 = extractvalue { ptr, i32 } %14, 1
  store i32 %16, ptr %6, align 4
  call void @_ZN3nix20UnkeyedValidPathInfoD2Ev(ptr noundef nonnull align 8 dereferenceable(352) %7) #1
  br label %17

17:                                               ; preds = %13
  %18 = load ptr, ptr %5, align 8
  %19 = load i32, ptr %6, align 4
  %20 = insertvalue { ptr, i32 } poison, ptr %18, 0
  %21 = insertvalue { ptr, i32 } %20, i32 %19, 1
  resume { ptr, i32 } %21
}

; Function Attrs: mustprogress uwtable
define internal void @"_ZZN3nix16BinaryCacheStore10addToStoreERKNS_13ValidPathInfoERNS_6SourceENS_10RepairFlagENS_13CheckSigsFlagEENK3$_0clESt4pairINS_4HashEmE"(ptr dead_on_unwind noalias writable sret(%"struct.nix::ValidPathInfo") align 8 %0, ptr noundef nonnull align 8 dereferenceable(8) %1, ptr noundef byval(%"struct.std::pair.161") align 8 %2) #5 align 2 {
  %4 = alloca ptr, align 8
  %5 = alloca ptr, align 8
  store ptr %0, ptr %4, align 8
  store ptr %1, ptr %5, align 8
  %6 = load ptr, ptr %5, align 8
  %7 = getelementptr inbounds %class.anon.222, ptr %6, i32 0, i32 0
  %8 = load ptr, ptr %7, align 8
  call void @_ZN3nix13ValidPathInfoC2ERKS0_(ptr noundef nonnull align 8 dereferenceable(384) %0, ptr noundef nonnull align 8 dereferenceable(384) %8)
  ret void
}

; Function Attrs: mustprogress nounwind uwtable
define linkonce_odr noundef ptr @_ZNKSt9_Any_data9_M_accessEv(ptr noundef nonnull align 8 dereferenceable(16) %0) #2 comdat align 2 {
  %2 = alloca ptr, align 8
  store ptr %0, ptr %2, align 8
  %3 = load ptr, ptr %2, align 8
  %4 = getelementptr inbounds [16 x i8], ptr %3, i64 0, i64 0
  ret ptr %4
}

; Function Attrs: mustprogress uwtable
define internal void @"_ZSt13__invoke_implIN3nix13ValidPathInfoERZNS0_16BinaryCacheStore10addToStoreERKS1_RNS0_6SourceENS0_10RepairFlagENS0_13CheckSigsFlagEE3$_0JSt4pairINS0_4HashEmEEET_St14__invoke_otherOT0_DpOT1_"(ptr dead_on_unwind noalias writable sret(%"struct.nix::ValidPathInfo") align 8 %0, ptr noundef nonnull align 8 dereferenceable(8) %1, ptr noundef nonnull align 8 dereferenceable(88) %2) #5 {
  %4 = alloca ptr, align 8
  %5 = alloca ptr, align 8
  %6 = alloca ptr, align 8
  %7 = alloca %"struct.std::pair.161", align 8
  store ptr %0, ptr %4, align 8
  store ptr %1, ptr %5, align 8
  store ptr %2, ptr %6, align 8
  %8 = load ptr, ptr %5, align 8
  %9 = load ptr, ptr %6, align 8
  call void @llvm.memcpy.p0.p0.i64(ptr align 8 %7, ptr align 8 %9, i64 88, i1 false)
  call void @"_ZZN3nix16BinaryCacheStore10addToStoreERKNS_13ValidPathInfoERNS_6SourceENS_10RepairFlagENS_13CheckSigsFlagEENK3$_0clESt4pairINS_4HashEmE"(ptr dead_on_unwind writable sret(%"struct.nix::ValidPathInfo") align 8 %0, ptr noundef nonnull align 8 dereferenceable(8) %8, ptr noundef byval(%"struct.std::pair.161") align 8 %7)
  ret void
}

; Function Attrs: mustprogress nounwind uwtable
define internal noundef nonnull align 8 dereferenceable(8) ptr @"_ZNKSt9_Any_data9_M_accessIZN3nix16BinaryCacheStore10addToStoreERKNS1_13ValidPathInfoERNS1_6SourceENS1_10RepairFlagENS1_13CheckSigsFlagEE3$_0EERKT_v"(ptr noundef nonnull align 8 dereferenceable(16) %0) #2 align 2 {
  %2 = alloca ptr, align 8
  store ptr %0, ptr %2, align 8
  %3 = load ptr, ptr %2, align 8
  %4 = call noundef ptr @_ZNKSt9_Any_data9_M_accessEv(ptr noundef nonnull align 8 dereferenceable(16) %3) #1
  ret ptr %4
}

; Function Attrs: mustprogress uwtable
define internal void @"_ZSt10__invoke_rIN3nix13ValidPathInfoERZNS0_16BinaryCacheStore10addToStoreERKS1_RNS0_6SourceENS0_10RepairFlagENS0_13CheckSigsFlagEE3$_0JSt4pairINS0_4HashEmEEENSt9enable_ifIX16is_invocable_r_vIT_T0_DpT1_EESF_E4typeEOSG_DpOSH_"(ptr dead_on_unwind noalias writable sret(%"struct.nix::ValidPathInfo") align 8 %0, ptr noundef nonnull align 8 dereferenceable(8) %1, ptr noundef nonnull align 8 dereferenceable(88) %2) #5 {
  %4 = alloca ptr, align 8
  %5 = alloca ptr, align 8
  %6 = alloca ptr, align 8
  store ptr %0, ptr %4, align 8
  store ptr %1, ptr %5, align 8
  store ptr %2, ptr %6, align 8
  %7 = load ptr, ptr %5, align 8
  %8 = load ptr, ptr %6, align 8
  call void @"_ZSt13__invoke_implIN3nix13ValidPathInfoERZNS0_16BinaryCacheStore10addToStoreERKS1_RNS0_6SourceENS0_10RepairFlagENS0_13CheckSigsFlagEE3$_0JSt4pairINS0_4HashEmEEET_St14__invoke_otherOT0_DpOT1_"(ptr dead_on_unwind writable sret(%"struct.nix::ValidPathInfo") align 8 %0, ptr noundef nonnull align 8 dereferenceable(8) %7, ptr noundef nonnull align 8 dereferenceable(88) %8)
  ret void
}

; Function Attrs: mustprogress nounwind uwtable
define internal noundef ptr @"_ZNSt14_Function_base13_Base_managerIZN3nix16BinaryCacheStore10addToStoreERKNS1_13ValidPathInfoERNS1_6SourceENS1_10RepairFlagENS1_13CheckSigsFlagEE3$_0E14_M_get_pointerERKSt9_Any_data"(ptr noundef nonnull align 8 dereferenceable(16) %0) #2 align 2 {
  %2 = alloca ptr, align 8
  %3 = alloca ptr, align 8
  store ptr %0, ptr %2, align 8
  %4 = load ptr, ptr %2, align 8
  %5 = call noundef nonnull align 8 dereferenceable(8) ptr @"_ZNKSt9_Any_data9_M_accessIZN3nix16BinaryCacheStore10addToStoreERKNS1_13ValidPathInfoERNS1_6SourceENS1_10RepairFlagENS1_13CheckSigsFlagEE3$_0EERKT_v"(ptr noundef nonnull align 8 dereferenceable(16) %4) #1
  store ptr %5, ptr %3, align 8
  %6 = load ptr, ptr %3, align 8
  ret ptr %6
}

; Function Attrs: mustprogress uwtable
define internal void @"_ZNSt17_Function_handlerIFN3nix13ValidPathInfoESt4pairINS0_4HashEmEEZNS0_16BinaryCacheStore10addToStoreERKS1_RNS0_6SourceENS0_10RepairFlagENS0_13CheckSigsFlagEE3$_0E9_M_invokeERKSt9_Any_dataOS4_"(ptr dead_on_unwind noalias writable sret(%"struct.nix::ValidPathInfo") align 8 %0, ptr noundef nonnull align 8 dereferenceable(16) %1, ptr noundef nonnull align 8 dereferenceable(88) %2) #5 align 2 {
  %4 = alloca ptr, align 8
  %5 = alloca ptr, align 8
  %6 = alloca ptr, align 8
  store ptr %0, ptr %4, align 8
  store ptr %1, ptr %5, align 8
  store ptr %2, ptr %6, align 8
  %7 = load ptr, ptr %5, align 8
  %8 = call noundef ptr @"_ZNSt14_Function_base13_Base_managerIZN3nix16BinaryCacheStore10addToStoreERKNS1_13ValidPathInfoERNS1_6SourceENS1_10RepairFlagENS1_13CheckSigsFlagEE3$_0E14_M_get_pointerERKSt9_Any_data"(ptr noundef nonnull align 8 dereferenceable(16) %7) #1
  %9 = load ptr, ptr %6, align 8
  call void @"_ZSt10__invoke_rIN3nix13ValidPathInfoERZNS0_16BinaryCacheStore10addToStoreERKS1_RNS0_6SourceENS0_10RepairFlagENS0_13CheckSigsFlagEE3$_0JSt4pairINS0_4HashEmEEENSt9enable_ifIX16is_invocable_r_vIT_T0_DpT1_EESF_E4typeEOSG_DpOSH_"(ptr dead_on_unwind writable sret(%"struct.nix::ValidPathInfo") align 8 %0, ptr noundef nonnull align 8 dereferenceable(8) %8, ptr noundef nonnull align 8 dereferenceable(88) %9)
  ret void
}