; Function Attrs: mustprogress uwtable
define internal void @"_ZNSt17_Function_handlerIFN3nix13ValidPathInfoESt4pairINS0_4HashEmEEZNS0_16BinaryCacheStore10addToStoreERKS1_RNS0_6SourceENS0_10RepairFlagENS0_13CheckSigsFlagEE3$_0E9_M_invokeERKSt9_Any_dataOS4_"(ptr dead_on_unwind noalias nonnull writable sret(%"struct.nix::ValidPathInfo") align 8 %0, ptr nocapture noundef nonnull readonly align 8 dereferenceable(16) %1, ptr nocapture nonnull readnone align 8 %2) #5 align 2 personality ptr @__gxx_personality_v0 {
  %.val = load ptr, ptr %1, align 8
  tail call void @_ZN3nix20UnkeyedValidPathInfoC2ERKS0_(ptr noundef nonnull align 8 dereferenceable(352) %0, ptr noundef nonnull align 8 dereferenceable(352) %.val)
  store ptr getelementptr inbounds ({ [5 x ptr] }, ptr @_ZTVN3nix13ValidPathInfoE, i64 0, i32 0, i64 2), ptr %0, align 8, !alias.scope !492
  %4 = getelementptr inbounds i8, ptr %0, i64 352
  %5 = getelementptr inbounds i8, ptr %.val, i64 352
  invoke void @_ZNSt7__cxx1112basic_stringIcSt11char_traitsIcESaIcEEC2ERKS4_(ptr noundef nonnull align 8 dereferenceable(32) %4, ptr noundef nonnull align 8 dereferenceable(32) %5)
          to label %"_ZSt10__invoke_rIN3nix13ValidPathInfoERZNS0_16BinaryCacheStore10addToStoreERKS1_RNS0_6SourceENS0_10RepairFlagENS0_13CheckSigsFlagEE3$_0JSt4pairINS0_4HashEmEEENSt9enable_ifIX16is_invocable_r_vIT_T0_DpT1_EESF_E4typeEOSG_DpOSH_.exit" unwind label %6

6:                                                ; preds = %3
  %7 = landingpad { ptr, i32 }
          cleanup
  tail call void @_ZN3nix20UnkeyedValidPathInfoD2Ev(ptr noundef nonnull align 8 dereferenceable(352) %0) #33
  resume { ptr, i32 } %7

"_ZSt10__invoke_rIN3nix13ValidPathInfoERZNS0_16BinaryCacheStore10addToStoreERKS1_RNS0_6SourceENS0_10RepairFlagENS0_13CheckSigsFlagEE3$_0JSt4pairINS0_4HashEmEEENSt9enable_ifIX16is_invocable_r_vIT_T0_DpT1_EESF_E4typeEOSG_DpOSH_.exit": ; preds = %3
  ret void
}